; Function Attrs: inlinehint nounwind uwtable
define internal fastcc void @Acb_ObjPatchFanin(ptr noundef readonly captures(none) %0, i32 noundef %1, i32 noundef %2, i32 noundef %3) unnamed_addr #2 {
  %5 = getelementptr i8, ptr %0, i64 136
  %.val = load ptr, ptr %5, align 8, !tbaa !12
  %6 = getelementptr i8, ptr %0, i64 152
  %.val17 = load ptr, ptr %6, align 8, !tbaa !12
  %7 = sext i32 %1 to i64
  %8 = getelementptr inbounds i32, ptr %.val, i64 %7
  %9 = load i32, ptr %8, align 4, !tbaa !15
  %10 = sext i32 %9 to i64
  %11 = getelementptr inbounds i32, ptr %.val17, i64 %10
  %12 = load i32, ptr %11, align 4, !tbaa !15
  %13 = icmp sgt i32 %12, 0
  br i1 %13, label %.lr.ph.preheader, label %._crit_edge

.lr.ph.preheader:                                 ; preds = %4
  %wide.trip.count = zext nneg i32 %12 to i64
  br label %.lr.ph

.lr.ph:                                           ; preds = %.lr.ph.preheader, %18
  %indvars.iv = phi i64 [ 0, %.lr.ph.preheader ], [ %indvars.iv.next, %18 ]
  %indvars.iv.next = add nuw nsw i64 %indvars.iv, 1
  %14 = getelementptr inbounds nuw i32, ptr %11, i64 %indvars.iv.next
  %15 = load i32, ptr %14, align 4, !tbaa !15
  %16 = icmp eq i32 %15, %2
  br i1 %16, label %17, label %18

17:                                               ; preds = %.lr.ph
  store i32 %3, ptr %14, align 4, !tbaa !15
  br label %18

18:                                               ; preds = %.lr.ph, %17
  %exitcond.not = icmp eq i64 %indvars.iv.next, %wide.trip.count
  br i1 %exitcond.not, label %._crit_edge, label %.lr.ph, !llvm.loop !40

._crit_edge:                                      ; preds = %18, %4
  %19 = getelementptr i8, ptr %0, i64 436
  %.val20 = load i32, ptr %19, align 4, !tbaa !41
  %20 = icmp slt i32 %.val20, 1
  br i1 %20, label %84, label %21

21:                                               ; preds = %._crit_edge
  %22 = getelementptr i8, ptr %0, i64 440
  %.val19 = load ptr, ptr %22, align 8, !tbaa !19
  %23 = sext i32 %2 to i64
  %24 = getelementptr inbounds %struct.Vec_Int_t_, ptr %.val19, i64 %23
  %25 = getelementptr inbounds nuw i8, ptr %24, i64 4
  %26 = load i32, ptr %25, align 4, !tbaa !22
  %27 = icmp sgt i32 %26, 0
  br i1 %27, label %.lr.ph.i, label %._crit_edge.i

.lr.ph.i:                                         ; preds = %21
  %28 = getelementptr inbounds nuw i8, ptr %24, i64 8
  %29 = load ptr, ptr %28, align 8, !tbaa !12
  %wide.trip.count.i = zext nneg i32 %26 to i64
  br label %30

30:                                               ; preds = %34, %.lr.ph.i
  %indvars.iv.i = phi i64 [ 0, %.lr.ph.i ], [ %indvars.iv.next.i, %34 ]
  %31 = getelementptr inbounds nuw i32, ptr %29, i64 %indvars.iv.i
  %32 = load i32, ptr %31, align 4, !tbaa !15
  %33 = icmp eq i32 %32, %1
  br i1 %33, label %._crit_edge.loopexit.i, label %34

34:                                               ; preds = %30
  %indvars.iv.next.i = add nuw nsw i64 %indvars.iv.i, 1
  %exitcond.not.i = icmp eq i64 %indvars.iv.next.i, %wide.trip.count.i
  br i1 %exitcond.not.i, label %Vec_IntRemove.exit, label %30, !llvm.loop !23

._crit_edge.loopexit.i:                           ; preds = %30
  %35 = trunc nuw nsw i64 %indvars.iv.i to i32
  br label %._crit_edge.i

._crit_edge.i:                                    ; preds = %._crit_edge.loopexit.i, %21
  %.0.lcssa.i = phi i32 [ 0, %21 ], [ %35, %._crit_edge.loopexit.i ]
  %36 = icmp eq i32 %.0.lcssa.i, %26
  br i1 %36, label %Vec_IntRemove.exit, label %.preheader.i

.preheader.i:                                     ; preds = %._crit_edge.i
  %.126.i = add nuw nsw i32 %.0.lcssa.i, 1
  %37 = icmp slt i32 %.126.i, %26
  br i1 %37, label %.lr.ph29.i, label %._crit_edge30.i

.lr.ph29.i:                                       ; preds = %.preheader.i
  %38 = getelementptr inbounds nuw i8, ptr %24, i64 8
  %39 = load ptr, ptr %38, align 8, !tbaa !12
  %40 = zext i32 %.126.i to i64
  br label %41

41:                                               ; preds = %41, %.lr.ph29.i
  %indvars.iv34.i = phi i64 [ %40, %.lr.ph29.i ], [ %indvars.iv.next35.i, %41 ]
  %.1.in27.i = phi i32 [ %.0.lcssa.i, %.lr.ph29.i ], [ %49, %41 ]
  %42 = getelementptr inbounds nuw i32, ptr %39, i64 %indvars.iv34.i
  %43 = load i32, ptr %42, align 4, !tbaa !15
  %44 = zext nneg i32 %.1.in27.i to i64
  %45 = getelementptr inbounds nuw i32, ptr %39, i64 %44
  store i32 %43, ptr %45, align 4, !tbaa !15
  %indvars.iv.next35.i = add nuw nsw i64 %indvars.iv34.i, 1
  %46 = load i32, ptr %25, align 4, !tbaa !22
  %47 = trunc nuw i64 %indvars.iv.next35.i to i32
  %48 = icmp sgt i32 %46, %47
  %49 = trunc nuw i64 %indvars.iv34.i to i32
  br i1 %48, label %41, label %._crit_edge30.i, !llvm.loop !24

._crit_edge30.i:                                  ; preds = %41, %.preheader.i
  %.lcssa.i = phi i32 [ %26, %.preheader.i ], [ %46, %41 ]
  %50 = add nsw i32 %.lcssa.i, -1
  store i32 %50, ptr %25, align 4, !tbaa !22
  br label %Vec_IntRemove.exit

Vec_IntRemove.exit:                               ; preds = %34, %._crit_edge.i, %._crit_edge30.i
  %51 = sext i32 %3 to i64
  %52 = getelementptr inbounds %struct.Vec_Int_t_, ptr %.val19, i64 %51
  %53 = getelementptr inbounds nuw i8, ptr %52, i64 4
  %54 = load i32, ptr %53, align 4, !tbaa !22
  %55 = load i32, ptr %52, align 8, !tbaa !26
  %56 = icmp eq i32 %54, %55
  br i1 %56, label %57, label %.Vec_IntGrow.exit10_crit_edge.i

.Vec_IntGrow.exit10_crit_edge.i:                  ; preds = %Vec_IntRemove.exit
  %.phi.trans.insert.i = getelementptr inbounds nuw i8, ptr %52, i64 8
  %.pre.i = load ptr, ptr %.phi.trans.insert.i, align 8, !tbaa !12
  br label %Vec_IntPush.exit

57:                                               ; preds = %Vec_IntRemove.exit
  %58 = icmp slt i32 %54, 16
  br i1 %58, label %59, label %67

59:                                               ; preds = %57
  %60 = getelementptr inbounds nuw i8, ptr %52, i64 8
  %61 = load ptr, ptr %60, align 8, !tbaa !12
  %.not9.i.i = icmp eq ptr %61, null
  br i1 %.not9.i.i, label %64, label %62

62:                                               ; preds = %59
  %63 = tail call dereferenceable_or_null(64) ptr @realloc(ptr noundef nonnull %61, i64 noundef 64) #8
  br label %Vec_IntGrow.exit.i

64:                                               ; preds = %59
  %65 = tail call noalias dereferenceable_or_null(64) ptr @malloc(i64 noundef 64) #9
  br label %Vec_IntGrow.exit.i

Vec_IntGrow.exit.i:                               ; preds = %64, %62
  %66 = phi ptr [ %63, %62 ], [ %65, %64 ]
  store ptr %66, ptr %60, align 8, !tbaa !12
  store i32 16, ptr %52, align 8, !tbaa !26
  br label %Vec_IntPush.exit

67:                                               ; preds = %57
  %68 = shl nuw nsw i32 %54, 1
  %69 = getelementptr inbounds nuw i8, ptr %52, i64 8
  %70 = load ptr, ptr %69, align 8, !tbaa !12
  %.not9.i9.i = icmp eq ptr %70, null
  %71 = zext nneg i32 %68 to i64
  %72 = shl nuw nsw i64 %71, 2
  br i1 %.not9.i9.i, label %75, label %73

73:                                               ; preds = %67
  %74 = tail call ptr @realloc(ptr noundef nonnull %70, i64 noundef %72) #8
  br label %77

75:                                               ; preds = %67
  %76 = tail call noalias ptr @malloc(i64 noundef %72) #9
  br label %77

77:                                               ; preds = %75, %73
  %78 = phi ptr [ %74, %73 ], [ %76, %75 ]
  store ptr %78, ptr %69, align 8, !tbaa !12
  store i32 %68, ptr %52, align 8, !tbaa !26
  br label %Vec_IntPush.exit

Vec_IntPush.exit:                                 ; preds = %.Vec_IntGrow.exit10_crit_edge.i, %Vec_IntGrow.exit.i, %77
  %79 = phi ptr [ %.pre.i, %.Vec_IntGrow.exit10_crit_edge.i ], [ %78, %77 ], [ %66, %Vec_IntGrow.exit.i ]
  %80 = load i32, ptr %53, align 4, !tbaa !22
  %81 = add nsw i32 %80, 1
  store i32 %81, ptr %53, align 4, !tbaa !22
  %82 = sext i32 %80 to i64
  %83 = getelementptr inbounds i32, ptr %79, i64 %82
  store i32 %1, ptr %83, align 4, !tbaa !15
  br label %84

84:                                               ; preds = %._crit_edge, %Vec_IntPush.exit
  ret void
}